target datalayout = "e-m:e-p270:32:32-p271:32:32-p272:64:64-i64:64-i128:128-f80:128-n8:16:32:64-S128"
target triple = "x86_64-unknown-linux-gnu"

%"class.v8::IndirectHandleBase" = type { ptr }
%"class.node::MemoryRetainer" = type { ptr }
%"class.node::quic::LogStream" = type { %"class.node::AsyncWrap", %"class.node::StreamBase", i64, i8, i8, i8, %"class.std::deque" }
%"class.node::AsyncWrap" = type { %"class.node::BaseObject", i32, i8, double, double }
%"class.node::BaseObject" = type { %"class.node::MemoryRetainer", %"class.v8::Global", ptr, ptr }
%"class.v8::Global" = type { %"class.v8::PersistentBase" }
%"class.v8::PersistentBase" = type { %"class.v8::IndirectHandleBase" }
%"class.node::StreamBase" = type { %"class.node::StreamResource", ptr, %"class.node::EmitToJSStreamListener" }
%"class.node::StreamResource" = type { ptr, ptr, i64, i64 }
%"class.node::EmitToJSStreamListener" = type { %"class.node::ReportWritesToJSStreamListener" }
%"class.node::ReportWritesToJSStreamListener" = type { %"class.node::StreamListener" }
%"class.node::StreamListener" = type { ptr, ptr, ptr }
%"class.std::deque" = type { %"class.std::_Deque_base" }
%"class.std::_Deque_base" = type { %"struct.std::_Deque_base<node::quic::LogStream::Chunk, std::allocator<node::quic::LogStream::Chunk>>::_Deque_impl" }
%"struct.std::_Deque_base<node::quic::LogStream::Chunk, std::allocator<node::quic::LogStream::Chunk>>::_Deque_impl" = type { %"struct.std::_Deque_base<node::quic::LogStream::Chunk, std::allocator<node::quic::LogStream::Chunk>>::_Deque_impl_data" }
%"struct.std::_Deque_base<node::quic::LogStream::Chunk, std::allocator<node::quic::LogStream::Chunk>>::_Deque_impl_data" = type { ptr, i64, %"struct.std::_Deque_iterator", %"struct.std::_Deque_iterator" }
%"struct.std::_Deque_iterator" = type { ptr, ptr, ptr, ptr }
%struct.uv_buf_t = type { ptr, i64 }
%"struct.node::quic::LogStream::Chunk" = type { i64, %struct.uv_buf_t }

; Function Attrs: mustprogress nounwind uwtable
define linkonce_odr dso_local void @_ZNSt15__new_allocatorIN4node4quic9LogStream5ChunkEE10deallocateEPS3_m(ptr noundef nonnull align 1 dereferenceable(1) %this, ptr noundef %__p, i64 noundef %__n) #4 comdat align 2 {
entry:
  %this.addr = alloca ptr, align 8
  %__p.addr = alloca ptr, align 8
  %__n.addr = alloca i64, align 8
  store ptr %this, ptr %this.addr, align 8
  store ptr %__p, ptr %__p.addr, align 8
  store i64 %__n, ptr %__n.addr, align 8
  %0 = load ptr, ptr %__p.addr, align 8
  call void @_ZdlPv(ptr noundef %0) #13
  ret void
}

; Function Attrs: mustprogress nounwind uwtable
define linkonce_odr dso_local noundef i64 @_ZNSt15_Deque_iteratorIN4node4quic9LogStream5ChunkERS3_PS3_E14_S_buffer_sizeEv() #4 comdat align 2 {
entry:
  %call = call noundef i64 @_ZSt16__deque_buf_sizem(i64 noundef 24)
  ret i64 %call
}

; Function Attrs: mustprogress nounwind uwtable
define linkonce_odr dso_local void @_ZNSt16allocator_traitsISaIN4node4quic9LogStream5ChunkEEE10deallocateERS4_PS3_m(ptr noundef nonnull align 1 dereferenceable(1) %__a, ptr noundef %__p, i64 noundef %__n) #4 comdat align 2 {
entry:
  %__a.addr = alloca ptr, align 8
  %__p.addr = alloca ptr, align 8
  %__n.addr = alloca i64, align 8
  store ptr %__a, ptr %__a.addr, align 8
  store ptr %__p, ptr %__p.addr, align 8
  store i64 %__n, ptr %__n.addr, align 8
  %0 = load ptr, ptr %__a.addr, align 8
  %1 = load ptr, ptr %__p.addr, align 8
  %2 = load i64, ptr %__n.addr, align 8
  call void @_ZNSt15__new_allocatorIN4node4quic9LogStream5ChunkEE10deallocateEPS3_m(ptr noundef nonnull align 1 dereferenceable(1) %0, ptr noundef %1, i64 noundef %2)
  ret void
}

; Function Attrs: mustprogress nounwind uwtable
define linkonce_odr dso_local noundef i64 @_ZSt16__deque_buf_sizem(i64 noundef %__size) #4 comdat {
entry:
  %__size.addr = alloca i64, align 8
  store i64 %__size, ptr %__size.addr, align 8
  %0 = load i64, ptr %__size.addr, align 8
  %cmp = icmp ult i64 %0, 512
  br i1 %cmp, label %cond.true, label %cond.false

cond.true:                                        ; preds = %entry
  %1 = load i64, ptr %__size.addr, align 8
  %div = udiv i64 512, %1
  br label %cond.end

cond.false:                                       ; preds = %entry
  br label %cond.end

cond.end:                                         ; preds = %cond.false, %cond.true
  %cond = phi i64 [ %div, %cond.true ], [ 1, %cond.false ]
  ret i64 %cond
}

; Function Attrs: mustprogress nounwind uwtable
define linkonce_odr dso_local void @_ZNSt15_Deque_iteratorIN4node4quic9LogStream5ChunkERS3_PS3_E11_M_set_nodeEPS5_(ptr noundef nonnull align 8 dereferenceable(32) %this, ptr noundef %__new_node) #4 comdat align 2 {
entry:
  %this.addr = alloca ptr, align 8
  %__new_node.addr = alloca ptr, align 8
  store ptr %this, ptr %this.addr, align 8
  store ptr %__new_node, ptr %__new_node.addr, align 8
  %this1 = load ptr, ptr %this.addr, align 8
  %0 = load ptr, ptr %__new_node.addr, align 8
  %_M_node = getelementptr inbounds %"struct.std::_Deque_iterator", ptr %this1, i32 0, i32 3
  store ptr %0, ptr %_M_node, align 8
  %1 = load ptr, ptr %__new_node.addr, align 8
  %2 = load ptr, ptr %1, align 8
  %_M_first = getelementptr inbounds %"struct.std::_Deque_iterator", ptr %this1, i32 0, i32 1
  store ptr %2, ptr %_M_first, align 8
  %_M_first2 = getelementptr inbounds %"struct.std::_Deque_iterator", ptr %this1, i32 0, i32 1
  %3 = load ptr, ptr %_M_first2, align 8
  %call = call noundef i64 @_ZNSt15_Deque_iteratorIN4node4quic9LogStream5ChunkERS3_PS3_E14_S_buffer_sizeEv() #3
  %add.ptr = getelementptr inbounds %"struct.node::quic::LogStream::Chunk", ptr %3, i64 %call
  %_M_last = getelementptr inbounds %"struct.std::_Deque_iterator", ptr %this1, i32 0, i32 2
  store ptr %add.ptr, ptr %_M_last, align 8
  ret void
}

; Function Attrs: mustprogress nounwind uwtable
define linkonce_odr dso_local void @_ZNSt11_Deque_baseIN4node4quic9LogStream5ChunkESaIS3_EE18_M_deallocate_nodeEPS3_(ptr noundef nonnull align 8 dereferenceable(80) %this, ptr noundef %__p) #4 comdat align 2 {
entry:
  %this.addr = alloca ptr, align 8
  %__p.addr = alloca ptr, align 8
  store ptr %this, ptr %this.addr, align 8
  store ptr %__p, ptr %__p.addr, align 8
  %this1 = load ptr, ptr %this.addr, align 8
  %_M_impl = getelementptr inbounds %"class.std::_Deque_base", ptr %this1, i32 0, i32 0
  %0 = load ptr, ptr %__p.addr, align 8
  %call = call noundef i64 @_ZSt16__deque_buf_sizem(i64 noundef 24)
  call void @_ZNSt16allocator_traitsISaIN4node4quic9LogStream5ChunkEEE10deallocateERS4_PS3_m(ptr noundef nonnull align 1 dereferenceable(1) %_M_impl, ptr noundef %0, i64 noundef %call)
  ret void
}

; Function Attrs: mustprogress nounwind uwtable
define linkonce_odr dso_local void @_ZNSt15__new_allocatorIN4node4quic9LogStream5ChunkEE7destroyIS3_EEvPT_(ptr noundef nonnull align 1 dereferenceable(1) %this, ptr noundef %__p) #4 comdat align 2 {
entry:
  %this.addr = alloca ptr, align 8
  %__p.addr = alloca ptr, align 8
  store ptr %this, ptr %this.addr, align 8
  store ptr %__p, ptr %__p.addr, align 8
  ret void
}

; Function Attrs: mustprogress nounwind uwtable
define linkonce_odr dso_local void @_ZNSt15_Deque_iteratorIN4node4quic9LogStream5ChunkERS3_PS3_EC2ERKS6_(ptr noundef nonnull align 8 dereferenceable(32) %this, ptr noundef nonnull align 8 dereferenceable(32) %__x) unnamed_addr #4 comdat align 2 {
entry:
  %this.addr = alloca ptr, align 8
  %__x.addr = alloca ptr, align 8
  store ptr %this, ptr %this.addr, align 8
  store ptr %__x, ptr %__x.addr, align 8
  %this1 = load ptr, ptr %this.addr, align 8
  %_M_cur = getelementptr inbounds %"struct.std::_Deque_iterator", ptr %this1, i32 0, i32 0
  %0 = load ptr, ptr %__x.addr, align 8
  %_M_cur2 = getelementptr inbounds %"struct.std::_Deque_iterator", ptr %0, i32 0, i32 0
  %1 = load ptr, ptr %_M_cur2, align 8
  store ptr %1, ptr %_M_cur, align 8
  %_M_first = getelementptr inbounds %"struct.std::_Deque_iterator", ptr %this1, i32 0, i32 1
  %2 = load ptr, ptr %__x.addr, align 8
  %_M_first3 = getelementptr inbounds %"struct.std::_Deque_iterator", ptr %2, i32 0, i32 1
  %3 = load ptr, ptr %_M_first3, align 8
  store ptr %3, ptr %_M_first, align 8
  %_M_last = getelementptr inbounds %"struct.std::_Deque_iterator", ptr %this1, i32 0, i32 2
  %4 = load ptr, ptr %__x.addr, align 8
  %_M_last4 = getelementptr inbounds %"struct.std::_Deque_iterator", ptr %4, i32 0, i32 2
  %5 = load ptr, ptr %_M_last4, align 8
  store ptr %5, ptr %_M_last, align 8
  %_M_node = getelementptr inbounds %"struct.std::_Deque_iterator", ptr %this1, i32 0, i32 3
  %6 = load ptr, ptr %__x.addr, align 8
  %_M_node5 = getelementptr inbounds %"struct.std::_Deque_iterator", ptr %6, i32 0, i32 3
  %7 = load ptr, ptr %_M_node5, align 8
  store ptr %7, ptr %_M_node, align 8
  ret void
}

; Function Attrs: mustprogress nounwind uwtable
define linkonce_odr dso_local void @_ZNSt5dequeIN4node4quic9LogStream5ChunkESaIS3_EE16_M_pop_front_auxEv(ptr noundef nonnull align 8 dereferenceable(80) %this) #4 comdat align 2 {
entry:
  %this.addr = alloca ptr, align 8
  store ptr %this, ptr %this.addr, align 8
  %this1 = load ptr, ptr %this.addr, align 8
  %call = call noundef nonnull align 1 dereferenceable(1) ptr @_ZNSt11_Deque_baseIN4node4quic9LogStream5ChunkESaIS3_EE19_M_get_Tp_allocatorEv(ptr noundef nonnull align 8 dereferenceable(80) %this1) #3
  %_M_impl = getelementptr inbounds %"class.std::_Deque_base", ptr %this1, i32 0, i32 0
  %_M_start = getelementptr inbounds %"struct.std::_Deque_base<node::quic::LogStream::Chunk, std::allocator<node::quic::LogStream::Chunk>>::_Deque_impl_data", ptr %_M_impl, i32 0, i32 2
  %_M_cur = getelementptr inbounds %"struct.std::_Deque_iterator", ptr %_M_start, i32 0, i32 0
  %0 = load ptr, ptr %_M_cur, align 8
  call void @_ZNSt16allocator_traitsISaIN4node4quic9LogStream5ChunkEEE7destroyIS3_EEvRS4_PT_(ptr noundef nonnull align 1 dereferenceable(1) %call, ptr noundef %0) #3
  %_M_impl2 = getelementptr inbounds %"class.std::_Deque_base", ptr %this1, i32 0, i32 0
  %_M_start3 = getelementptr inbounds %"struct.std::_Deque_base<node::quic::LogStream::Chunk, std::allocator<node::quic::LogStream::Chunk>>::_Deque_impl_data", ptr %_M_impl2, i32 0, i32 2
  %_M_first = getelementptr inbounds %"struct.std::_Deque_iterator", ptr %_M_start3, i32 0, i32 1
  %1 = load ptr, ptr %_M_first, align 8
  call void @_ZNSt11_Deque_baseIN4node4quic9LogStream5ChunkESaIS3_EE18_M_deallocate_nodeEPS3_(ptr noundef nonnull align 8 dereferenceable(80) %this1, ptr noundef %1) #3
  %_M_impl4 = getelementptr inbounds %"class.std::_Deque_base", ptr %this1, i32 0, i32 0
  %_M_start5 = getelementptr inbounds %"struct.std::_Deque_base<node::quic::LogStream::Chunk, std::allocator<node::quic::LogStream::Chunk>>::_Deque_impl_data", ptr %_M_impl4, i32 0, i32 2
  %_M_impl6 = getelementptr inbounds %"class.std::_Deque_base", ptr %this1, i32 0, i32 0
  %_M_start7 = getelementptr inbounds %"struct.std::_Deque_base<node::quic::LogStream::Chunk, std::allocator<node::quic::LogStream::Chunk>>::_Deque_impl_data", ptr %_M_impl6, i32 0, i32 2
  %_M_node = getelementptr inbounds %"struct.std::_Deque_iterator", ptr %_M_start7, i32 0, i32 3
  %2 = load ptr, ptr %_M_node, align 8
  %add.ptr = getelementptr inbounds ptr, ptr %2, i64 1
  call void @_ZNSt15_Deque_iteratorIN4node4quic9LogStream5ChunkERS3_PS3_E11_M_set_nodeEPS5_(ptr noundef nonnull align 8 dereferenceable(32) %_M_start5, ptr noundef %add.ptr) #3
  %_M_impl8 = getelementptr inbounds %"class.std::_Deque_base", ptr %this1, i32 0, i32 0
  %_M_start9 = getelementptr inbounds %"struct.std::_Deque_base<node::quic::LogStream::Chunk, std::allocator<node::quic::LogStream::Chunk>>::_Deque_impl_data", ptr %_M_impl8, i32 0, i32 2
  %_M_first10 = getelementptr inbounds %"struct.std::_Deque_iterator", ptr %_M_start9, i32 0, i32 1
  %3 = load ptr, ptr %_M_first10, align 8
  %_M_impl11 = getelementptr inbounds %"class.std::_Deque_base", ptr %this1, i32 0, i32 0
  %_M_start12 = getelementptr inbounds %"struct.std::_Deque_base<node::quic::LogStream::Chunk, std::allocator<node::quic::LogStream::Chunk>>::_Deque_impl_data", ptr %_M_impl11, i32 0, i32 2
  %_M_cur13 = getelementptr inbounds %"struct.std::_Deque_iterator", ptr %_M_start12, i32 0, i32 0
  store ptr %3, ptr %_M_cur13, align 8
  ret void
}

; Function Attrs: mustprogress nounwind uwtable
define linkonce_odr dso_local void @_ZNSt16allocator_traitsISaIN4node4quic9LogStream5ChunkEEE7destroyIS3_EEvRS4_PT_(ptr noundef nonnull align 1 dereferenceable(1) %__a, ptr noundef %__p) #4 comdat align 2 {
entry:
  %__a.addr = alloca ptr, align 8
  %__p.addr = alloca ptr, align 8
  store ptr %__a, ptr %__a.addr, align 8
  store ptr %__p, ptr %__p.addr, align 8
  %0 = load ptr, ptr %__a.addr, align 8
  %1 = load ptr, ptr %__p.addr, align 8
  call void @_ZNSt15__new_allocatorIN4node4quic9LogStream5ChunkEE7destroyIS3_EEvPT_(ptr noundef nonnull align 1 dereferenceable(1) %0, ptr noundef %1) #3
  ret void
}

; Function Attrs: mustprogress nounwind uwtable
define linkonce_odr dso_local noundef nonnull align 1 dereferenceable(1) ptr @_ZNSt11_Deque_baseIN4node4quic9LogStream5ChunkESaIS3_EE19_M_get_Tp_allocatorEv(ptr noundef nonnull align 8 dereferenceable(80) %this) #4 comdat align 2 {
entry:
  %this.addr = alloca ptr, align 8
  store ptr %this, ptr %this.addr, align 8
  %this1 = load ptr, ptr %this.addr, align 8
  %_M_impl = getelementptr inbounds %"class.std::_Deque_base", ptr %this1, i32 0, i32 0
  ret ptr %_M_impl
}

; Function Attrs: mustprogress nounwind uwtable
define linkonce_odr dso_local noundef nonnull align 8 dereferenceable(24) ptr @_ZNKSt15_Deque_iteratorIN4node4quic9LogStream5ChunkERS3_PS3_EdeEv(ptr noundef nonnull align 8 dereferenceable(32) %this) #4 comdat align 2 {
entry:
  %this.addr = alloca ptr, align 8
  store ptr %this, ptr %this.addr, align 8
  %this1 = load ptr, ptr %this.addr, align 8
  %_M_cur = getelementptr inbounds %"struct.std::_Deque_iterator", ptr %this1, i32 0, i32 0
  %0 = load ptr, ptr %_M_cur, align 8
  ret ptr %0
}

; Function Attrs: mustprogress nounwind uwtable
define linkonce_odr dso_local void @_ZNSt5dequeIN4node4quic9LogStream5ChunkESaIS3_EE5beginEv(ptr noalias sret(%"struct.std::_Deque_iterator") align 8 %agg.result, ptr noundef nonnull align 8 dereferenceable(80) %this) #4 comdat align 2 {
entry:
  %result.ptr = alloca ptr, align 8
  %this.addr = alloca ptr, align 8
  store ptr %agg.result, ptr %result.ptr, align 8
  store ptr %this, ptr %this.addr, align 8
  %this1 = load ptr, ptr %this.addr, align 8
  %_M_impl = getelementptr inbounds %"class.std::_Deque_base", ptr %this1, i32 0, i32 0
  %_M_start = getelementptr inbounds %"struct.std::_Deque_base<node::quic::LogStream::Chunk, std::allocator<node::quic::LogStream::Chunk>>::_Deque_impl_data", ptr %_M_impl, i32 0, i32 2
  call void @_ZNSt15_Deque_iteratorIN4node4quic9LogStream5ChunkERS3_PS3_EC2ERKS6_(ptr noundef nonnull align 8 dereferenceable(32) %agg.result, ptr noundef nonnull align 8 dereferenceable(32) %_M_start) #3
  ret void
}

; Function Attrs: mustprogress nounwind uwtable
define linkonce_odr dso_local void @_ZNSt5dequeIN4node4quic9LogStream5ChunkESaIS3_EE9pop_frontEv(ptr noundef nonnull align 8 dereferenceable(80) %this) #4 comdat align 2 {
entry:
  %this.addr = alloca ptr, align 8
  store ptr %this, ptr %this.addr, align 8
  %this1 = load ptr, ptr %this.addr, align 8
  %_M_impl = getelementptr inbounds %"class.std::_Deque_base", ptr %this1, i32 0, i32 0
  %_M_start = getelementptr inbounds %"struct.std::_Deque_base<node::quic::LogStream::Chunk, std::allocator<node::quic::LogStream::Chunk>>::_Deque_impl_data", ptr %_M_impl, i32 0, i32 2
  %_M_cur = getelementptr inbounds %"struct.std::_Deque_iterator", ptr %_M_start, i32 0, i32 0
  %0 = load ptr, ptr %_M_cur, align 8
  %_M_impl2 = getelementptr inbounds %"class.std::_Deque_base", ptr %this1, i32 0, i32 0
  %_M_start3 = getelementptr inbounds %"struct.std::_Deque_base<node::quic::LogStream::Chunk, std::allocator<node::quic::LogStream::Chunk>>::_Deque_impl_data", ptr %_M_impl2, i32 0, i32 2
  %_M_last = getelementptr inbounds %"struct.std::_Deque_iterator", ptr %_M_start3, i32 0, i32 2
  %1 = load ptr, ptr %_M_last, align 8
  %add.ptr = getelementptr inbounds %"struct.node::quic::LogStream::Chunk", ptr %1, i64 -1
  %cmp = icmp ne ptr %0, %add.ptr
  br i1 %cmp, label %if.then, label %if.else

if.then:                                          ; preds = %entry
  %call = call noundef nonnull align 1 dereferenceable(1) ptr @_ZNSt11_Deque_baseIN4node4quic9LogStream5ChunkESaIS3_EE19_M_get_Tp_allocatorEv(ptr noundef nonnull align 8 dereferenceable(80) %this1) #3
  %_M_impl4 = getelementptr inbounds %"class.std::_Deque_base", ptr %this1, i32 0, i32 0
  %_M_start5 = getelementptr inbounds %"struct.std::_Deque_base<node::quic::LogStream::Chunk, std::allocator<node::quic::LogStream::Chunk>>::_Deque_impl_data", ptr %_M_impl4, i32 0, i32 2
  %_M_cur6 = getelementptr inbounds %"struct.std::_Deque_iterator", ptr %_M_start5, i32 0, i32 0
  %2 = load ptr, ptr %_M_cur6, align 8
  call void @_ZNSt16allocator_traitsISaIN4node4quic9LogStream5ChunkEEE7destroyIS3_EEvRS4_PT_(ptr noundef nonnull align 1 dereferenceable(1) %call, ptr noundef %2) #3
  %_M_impl7 = getelementptr inbounds %"class.std::_Deque_base", ptr %this1, i32 0, i32 0
  %_M_start8 = getelementptr inbounds %"struct.std::_Deque_base<node::quic::LogStream::Chunk, std::allocator<node::quic::LogStream::Chunk>>::_Deque_impl_data", ptr %_M_impl7, i32 0, i32 2
  %_M_cur9 = getelementptr inbounds %"struct.std::_Deque_iterator", ptr %_M_start8, i32 0, i32 0
  %3 = load ptr, ptr %_M_cur9, align 8
  %incdec.ptr = getelementptr inbounds %"struct.node::quic::LogStream::Chunk", ptr %3, i32 1
  store ptr %incdec.ptr, ptr %_M_cur9, align 8
  br label %if.end

if.else:                                          ; preds = %entry
  call void @_ZNSt5dequeIN4node4quic9LogStream5ChunkESaIS3_EE16_M_pop_front_auxEv(ptr noundef nonnull align 8 dereferenceable(80) %this1)
  br label %if.end

if.end:                                           ; preds = %if.else, %if.then
  ret void
}

; Function Attrs: mustprogress nounwind uwtable
define linkonce_odr dso_local noundef nonnull align 8 dereferenceable(24) ptr @_ZNSt5dequeIN4node4quic9LogStream5ChunkESaIS3_EE5frontEv(ptr noundef nonnull align 8 dereferenceable(80) %this) #4 comdat align 2 {
entry:
  %this.addr = alloca ptr, align 8
  %ref.tmp = alloca %"struct.std::_Deque_iterator", align 8
  store ptr %this, ptr %this.addr, align 8
  %this1 = load ptr, ptr %this.addr, align 8
  call void @_ZNSt5dequeIN4node4quic9LogStream5ChunkESaIS3_EE5beginEv(ptr sret(%"struct.std::_Deque_iterator") align 8 %ref.tmp, ptr noundef nonnull align 8 dereferenceable(80) %this1) #3
  %call = call noundef nonnull align 8 dereferenceable(24) ptr @_ZNKSt15_Deque_iteratorIN4node4quic9LogStream5ChunkERS3_PS3_EdeEv(ptr noundef nonnull align 8 dereferenceable(32) %ref.tmp) #3
  ret ptr %call
}

; Function Attrs: mustprogress nounwind uwtable
define dso_local void @_ZN4node4quic9LogStream12ensure_spaceEm(ptr noundef nonnull align 8 dereferenceable(216) %this, i64 noundef %amt) #4 align 2 {
entry:
  %this.addr = alloca ptr, align 8
  %amt.addr = alloca i64, align 8
  store ptr %this, ptr %this.addr, align 8
  store i64 %amt, ptr %amt.addr, align 8
  %this1 = load ptr, ptr %this.addr, align 8
  br label %while.cond

while.cond:                                       ; preds = %while.body, %entry
  %total_ = getelementptr inbounds %"class.node::quic::LogStream", ptr %this1, i32 0, i32 2
  %0 = load i64, ptr %total_, align 8
  %1 = load i64, ptr %amt.addr, align 8
  %add = add i64 %0, %1
  %cmp = icmp ugt i64 %add, 10240
  br i1 %cmp, label %while.body, label %while.end

while.body:                                       ; preds = %while.cond
  %buffer_ = getelementptr inbounds %"class.node::quic::LogStream", ptr %this1, i32 0, i32 6
  %call = call noundef nonnull align 8 dereferenceable(24) ptr @_ZNSt5dequeIN4node4quic9LogStream5ChunkESaIS3_EE5frontEv(ptr noundef nonnull align 8 dereferenceable(80) %buffer_) #3
  %buf = getelementptr inbounds %"struct.node::quic::LogStream::Chunk", ptr %call, i32 0, i32 1
  %len = getelementptr inbounds %struct.uv_buf_t, ptr %buf, i32 0, i32 1
  %2 = load i64, ptr %len, align 8
  %total_2 = getelementptr inbounds %"class.node::quic::LogStream", ptr %this1, i32 0, i32 2
  %3 = load i64, ptr %total_2, align 8
  %sub = sub i64 %3, %2
  store i64 %sub, ptr %total_2, align 8
  %buffer_3 = getelementptr inbounds %"class.node::quic::LogStream", ptr %this1, i32 0, i32 6
  call void @_ZNSt5dequeIN4node4quic9LogStream5ChunkESaIS3_EE9pop_frontEv(ptr noundef nonnull align 8 dereferenceable(80) %buffer_3) #3
  br label %while.cond, !llvm.loop !7

while.end:                                        ; preds = %while.cond
  ret void
}