; Function Attrs: mustprogress nounwind uwtable
define dso_local void @_ZN4node4quic9LogStream12ensure_spaceEm(ptr nocapture noundef nonnull align 8 dereferenceable(216) %this, i64 noundef %amt) local_unnamed_addr #3 align 2 {
entry:
  %total_ = getelementptr inbounds i8, ptr %this, i64 120
  %0 = load i64, ptr %total_, align 8
  %add1 = add i64 %0, %amt
  %cmp2 = icmp ugt i64 %add1, 10240
  br i1 %cmp2, label %while.body.lr.ph, label %while.end

while.body.lr.ph:                                 ; preds = %entry
  %_M_start.i.i = getelementptr inbounds i8, ptr %this, i64 152
  %_M_last.i = getelementptr inbounds i8, ptr %this, i64 168
  %_M_first.i.i = getelementptr inbounds i8, ptr %this, i64 160
  %_M_node.i.i = getelementptr inbounds i8, ptr %this, i64 176
  %.pre = load ptr, ptr %_M_start.i.i, align 8
  %.pre3 = load ptr, ptr %_M_last.i, align 8
  br label %while.body

while.body:                                       ; preds = %while.body.lr.ph, %_ZNSt5dequeIN4node4quic9LogStream5ChunkESaIS3_EE9pop_frontEv.exit
  %1 = phi ptr [ %.pre3, %while.body.lr.ph ], [ %9, %_ZNSt5dequeIN4node4quic9LogStream5ChunkESaIS3_EE9pop_frontEv.exit ]
  %2 = phi ptr [ %.pre, %while.body.lr.ph ], [ %storemerge.i, %_ZNSt5dequeIN4node4quic9LogStream5ChunkESaIS3_EE9pop_frontEv.exit ]
  %3 = phi i64 [ %0, %while.body.lr.ph ], [ %8, %_ZNSt5dequeIN4node4quic9LogStream5ChunkESaIS3_EE9pop_frontEv.exit ]
  %len = getelementptr inbounds i8, ptr %2, i64 16
  %4 = load i64, ptr %len, align 8
  %sub = sub i64 %3, %4
  store i64 %sub, ptr %total_, align 8
  %add.ptr.i = getelementptr inbounds i8, ptr %1, i64 -24
  %cmp.not.i = icmp eq ptr %2, %add.ptr.i
  br i1 %cmp.not.i, label %if.else.i, label %if.then.i

if.then.i:                                        ; preds = %while.body
  %incdec.ptr.i = getelementptr inbounds i8, ptr %2, i64 24
  br label %_ZNSt5dequeIN4node4quic9LogStream5ChunkESaIS3_EE9pop_frontEv.exit

if.else.i:                                        ; preds = %while.body
  %5 = load ptr, ptr %_M_first.i.i, align 8
  tail call void @_ZdlPv(ptr noundef %5) #21
  %6 = load ptr, ptr %_M_node.i.i, align 8
  %add.ptr.i.i = getelementptr inbounds i8, ptr %6, i64 8
  store ptr %add.ptr.i.i, ptr %_M_node.i.i, align 8
  %7 = load ptr, ptr %add.ptr.i.i, align 8
  store ptr %7, ptr %_M_first.i.i, align 8
  %add.ptr.i.i.i = getelementptr inbounds i8, ptr %7, i64 504
  store ptr %add.ptr.i.i.i, ptr %_M_last.i, align 8
  %.pre4 = load i64, ptr %total_, align 8
  br label %_ZNSt5dequeIN4node4quic9LogStream5ChunkESaIS3_EE9pop_frontEv.exit

_ZNSt5dequeIN4node4quic9LogStream5ChunkESaIS3_EE9pop_frontEv.exit: ; preds = %if.then.i, %if.else.i
  %8 = phi i64 [ %sub, %if.then.i ], [ %.pre4, %if.else.i ]
  %9 = phi ptr [ %1, %if.then.i ], [ %add.ptr.i.i.i, %if.else.i ]
  %storemerge.i = phi ptr [ %incdec.ptr.i, %if.then.i ], [ %7, %if.else.i ]
  store ptr %storemerge.i, ptr %_M_start.i.i, align 8
  %add = add i64 %8, %amt
  %cmp = icmp ugt i64 %add, 10240
  br i1 %cmp, label %while.body, label %while.end, !llvm.loop !8

while.end:                                        ; preds = %_ZNSt5dequeIN4node4quic9LogStream5ChunkESaIS3_EE9pop_frontEv.exit, %entry
  ret void
}